target datalayout = "e-m:e-p270:32:32-p271:32:32-p272:64:64-i64:64-i128:128-f80:128-n8:16:32:64-S128"
target triple = "x86_64-pc-linux-gnu"

%struct.mbedtls_mpi = type { ptr, i16, i16 }

; Function Attrs: nounwind uwtable
define hidden i32 @mbedtls_mpi_cmp_abs(ptr noundef %0, ptr noundef %1) #0 {
  %3 = alloca i32, align 4
  %4 = alloca ptr, align 8
  %5 = alloca ptr, align 8
  %6 = alloca i64, align 8
  %7 = alloca i64, align 8
  %8 = alloca i32, align 4
  store ptr %0, ptr %4, align 8, !tbaa !3
  store ptr %1, ptr %5, align 8, !tbaa !3
  call void @llvm.lifetime.start.p0(i64 8, ptr %6) #9
  call void @llvm.lifetime.start.p0(i64 8, ptr %7) #9
  %9 = load ptr, ptr %4, align 8, !tbaa !3
  %10 = getelementptr inbounds nuw %struct.mbedtls_mpi, ptr %9, i32 0, i32 2
  %11 = load i16, ptr %10, align 2, !tbaa !10
  %12 = zext i16 %11 to i64
  store i64 %12, ptr %6, align 8, !tbaa !15
  br label %13

13:                                               ; preds = %27, %2
  %14 = load i64, ptr %6, align 8, !tbaa !15
  %15 = icmp ugt i64 %14, 0
  br i1 %15, label %16, label %30

16:                                               ; preds = %13
  %17 = load ptr, ptr %4, align 8, !tbaa !3
  %18 = getelementptr inbounds nuw %struct.mbedtls_mpi, ptr %17, i32 0, i32 0
  %19 = load ptr, ptr %18, align 8, !tbaa !17
  %20 = load i64, ptr %6, align 8, !tbaa !15
  %21 = sub i64 %20, 1
  %22 = getelementptr inbounds nuw i64, ptr %19, i64 %21
  %23 = load i64, ptr %22, align 8, !tbaa !15
  %24 = icmp ne i64 %23, 0
  br i1 %24, label %25, label %26

25:                                               ; preds = %16
  br label %30

26:                                               ; preds = %16
  br label %27

27:                                               ; preds = %26
  %28 = load i64, ptr %6, align 8, !tbaa !15
  %29 = add i64 %28, -1
  store i64 %29, ptr %6, align 8, !tbaa !15
  br label %13, !llvm.loop !44

30:                                               ; preds = %25, %13
  %31 = load ptr, ptr %5, align 8, !tbaa !3
  %32 = getelementptr inbounds nuw %struct.mbedtls_mpi, ptr %31, i32 0, i32 2
  %33 = load i16, ptr %32, align 2, !tbaa !10
  %34 = zext i16 %33 to i64
  store i64 %34, ptr %7, align 8, !tbaa !15
  br label %35

35:                                               ; preds = %49, %30
  %36 = load i64, ptr %7, align 8, !tbaa !15
  %37 = icmp ugt i64 %36, 0
  br i1 %37, label %38, label %52

38:                                               ; preds = %35
  %39 = load ptr, ptr %5, align 8, !tbaa !3
  %40 = getelementptr inbounds nuw %struct.mbedtls_mpi, ptr %39, i32 0, i32 0
  %41 = load ptr, ptr %40, align 8, !tbaa !17
  %42 = load i64, ptr %7, align 8, !tbaa !15
  %43 = sub i64 %42, 1
  %44 = getelementptr inbounds nuw i64, ptr %41, i64 %43
  %45 = load i64, ptr %44, align 8, !tbaa !15
  %46 = icmp ne i64 %45, 0
  br i1 %46, label %47, label %48

47:                                               ; preds = %38
  br label %52

48:                                               ; preds = %38
  br label %49

49:                                               ; preds = %48
  %50 = load i64, ptr %7, align 8, !tbaa !15
  %51 = add i64 %50, -1
  store i64 %51, ptr %7, align 8, !tbaa !15
  br label %35, !llvm.loop !45

52:                                               ; preds = %47, %35
  %53 = load i64, ptr %6, align 8, !tbaa !15
  %54 = load i64, ptr %7, align 8, !tbaa !15
  %55 = icmp ugt i64 %53, %54
  br i1 %55, label %56, label %57

56:                                               ; preds = %52
  store i32 1, ptr %3, align 4
  store i32 1, ptr %8, align 4
  br label %105

57:                                               ; preds = %52
  %58 = load i64, ptr %7, align 8, !tbaa !15
  %59 = load i64, ptr %6, align 8, !tbaa !15
  %60 = icmp ugt i64 %58, %59
  br i1 %60, label %61, label %62

61:                                               ; preds = %57
  store i32 -1, ptr %3, align 4
  store i32 1, ptr %8, align 4
  br label %105

62:                                               ; preds = %57
  br label %63

63:                                               ; preds = %101, %62
  %64 = load i64, ptr %6, align 8, !tbaa !15
  %65 = icmp ugt i64 %64, 0
  br i1 %65, label %66, label %104

66:                                               ; preds = %63
  %67 = load ptr, ptr %4, align 8, !tbaa !3
  %68 = getelementptr inbounds nuw %struct.mbedtls_mpi, ptr %67, i32 0, i32 0
  %69 = load ptr, ptr %68, align 8, !tbaa !17
  %70 = load i64, ptr %6, align 8, !tbaa !15
  %71 = sub i64 %70, 1
  %72 = getelementptr inbounds nuw i64, ptr %69, i64 %71
  %73 = load i64, ptr %72, align 8, !tbaa !15
  %74 = load ptr, ptr %5, align 8, !tbaa !3
  %75 = getelementptr inbounds nuw %struct.mbedtls_mpi, ptr %74, i32 0, i32 0
  %76 = load ptr, ptr %75, align 8, !tbaa !17
  %77 = load i64, ptr %6, align 8, !tbaa !15
  %78 = sub i64 %77, 1
  %79 = getelementptr inbounds nuw i64, ptr %76, i64 %78
  %80 = load i64, ptr %79, align 8, !tbaa !15
  %81 = icmp ugt i64 %73, %80
  br i1 %81, label %82, label %83

82:                                               ; preds = %66
  store i32 1, ptr %3, align 4
  store i32 1, ptr %8, align 4
  br label %105

83:                                               ; preds = %66
  %84 = load ptr, ptr %4, align 8, !tbaa !3
  %85 = getelementptr inbounds nuw %struct.mbedtls_mpi, ptr %84, i32 0, i32 0
  %86 = load ptr, ptr %85, align 8, !tbaa !17
  %87 = load i64, ptr %6, align 8, !tbaa !15
  %88 = sub i64 %87, 1
  %89 = getelementptr inbounds nuw i64, ptr %86, i64 %88
  %90 = load i64, ptr %89, align 8, !tbaa !15
  %91 = load ptr, ptr %5, align 8, !tbaa !3
  %92 = getelementptr inbounds nuw %struct.mbedtls_mpi, ptr %91, i32 0, i32 0
  %93 = load ptr, ptr %92, align 8, !tbaa !17
  %94 = load i64, ptr %6, align 8, !tbaa !15
  %95 = sub i64 %94, 1
  %96 = getelementptr inbounds nuw i64, ptr %93, i64 %95
  %97 = load i64, ptr %96, align 8, !tbaa !15
  %98 = icmp ult i64 %90, %97
  br i1 %98, label %99, label %100

99:                                               ; preds = %83
  store i32 -1, ptr %3, align 4
  store i32 1, ptr %8, align 4
  br label %105

100:                                              ; preds = %83
  br label %101

101:                                              ; preds = %100
  %102 = load i64, ptr %6, align 8, !tbaa !15
  %103 = add i64 %102, -1
  store i64 %103, ptr %6, align 8, !tbaa !15
  br label %63, !llvm.loop !46

104:                                              ; preds = %63
  store i32 0, ptr %3, align 4
  store i32 1, ptr %8, align 4
  br label %105

105:                                              ; preds = %104, %99, %82, %61, %56
  call void @llvm.lifetime.end.p0(i64 8, ptr %7) #9
  call void @llvm.lifetime.end.p0(i64 8, ptr %6) #9
  %106 = load i32, ptr %3, align 4
  ret i32 %106
}