; Function Attrs: nofree norecurse nosync nounwind memory(read, inaccessiblemem: none) uwtable
define hidden range(i32 -1, 2) i32 @mbedtls_mpi_cmp_abs(ptr noundef readonly captures(none) %0, ptr noundef readonly captures(none) %1) local_unnamed_addr #9 {
  %3 = getelementptr inbounds nuw i8, ptr %0, i64 10
  %4 = load i16, ptr %3, align 2, !tbaa !3
  %.not32 = icmp eq i16 %4, 0
  br i1 %.not32, label %._crit_edge, label %.lr.ph

.lr.ph:                                           ; preds = %2
  %5 = zext i16 %4 to i64
  %6 = load ptr, ptr %0, align 8, !tbaa !12
  %invariant.gep = getelementptr i8, ptr %6, i64 -8
  br label %7

7:                                                ; preds = %.lr.ph, %9
  %.02433 = phi i64 [ %5, %.lr.ph ], [ %10, %9 ]
  %gep = getelementptr i64, ptr %invariant.gep, i64 %.02433
  %8 = load i64, ptr %gep, align 8, !tbaa !17
  %.not28 = icmp eq i64 %8, 0
  br i1 %.not28, label %9, label %._crit_edge

9:                                                ; preds = %7
  %10 = add nsw i64 %.02433, -1
  %.not = icmp eq i64 %10, 0
  br i1 %.not, label %._crit_edge, label %7, !llvm.loop !34

._crit_edge:                                      ; preds = %9, %7, %2
  %.024.lcssa = phi i64 [ 0, %2 ], [ %.02433, %7 ], [ 0, %9 ]
  %11 = getelementptr inbounds nuw i8, ptr %1, i64 10
  %12 = load i16, ptr %11, align 2, !tbaa !3
  %.not2936 = icmp eq i16 %12, 0
  br i1 %.not2936, label %._crit_edge40, label %.lr.ph39

.lr.ph39:                                         ; preds = %._crit_edge
  %13 = zext i16 %12 to i64
  %14 = load ptr, ptr %1, align 8, !tbaa !12
  %invariant.gep44 = getelementptr i8, ptr %14, i64 -8
  br label %15

15:                                               ; preds = %.lr.ph39, %17
  %.037 = phi i64 [ %13, %.lr.ph39 ], [ %18, %17 ]
  %gep45 = getelementptr i64, ptr %invariant.gep44, i64 %.037
  %16 = load i64, ptr %gep45, align 8, !tbaa !17
  %.not30 = icmp eq i64 %16, 0
  br i1 %.not30, label %17, label %._crit_edge40

17:                                               ; preds = %15
  %18 = add nsw i64 %.037, -1
  %.not29 = icmp eq i64 %18, 0
  br i1 %.not29, label %._crit_edge40, label %15, !llvm.loop !35

._crit_edge40:                                    ; preds = %17, %15, %._crit_edge
  %.0.lcssa = phi i64 [ 0, %._crit_edge ], [ %.037, %15 ], [ 0, %17 ]
  %19 = icmp ugt i64 %.024.lcssa, %.0.lcssa
  br i1 %19, label %.loopexit, label %20

20:                                               ; preds = %._crit_edge40
  %21 = icmp ugt i64 %.0.lcssa, %.024.lcssa
  br i1 %21, label %.loopexit, label %.preheader

.preheader:                                       ; preds = %20, %31
  %.1 = phi i64 [ %24, %31 ], [ %.024.lcssa, %20 ]
  %.not31 = icmp eq i64 %.1, 0
  br i1 %.not31, label %.loopexit, label %22

22:                                               ; preds = %.preheader
  %23 = load ptr, ptr %0, align 8, !tbaa !12
  %24 = add nsw i64 %.1, -1
  %25 = getelementptr inbounds nuw i64, ptr %23, i64 %24
  %26 = load i64, ptr %25, align 8, !tbaa !17
  %27 = load ptr, ptr %1, align 8, !tbaa !12
  %28 = getelementptr inbounds nuw i64, ptr %27, i64 %24
  %29 = load i64, ptr %28, align 8, !tbaa !17
  %30 = icmp ugt i64 %26, %29
  br i1 %30, label %.loopexit, label %31

31:                                               ; preds = %22
  %32 = icmp ult i64 %26, %29
  br i1 %32, label %.loopexit, label %.preheader, !llvm.loop !36

.loopexit:                                        ; preds = %.preheader, %31, %22, %20, %._crit_edge40
  %.025 = phi i32 [ 1, %._crit_edge40 ], [ -1, %20 ], [ 0, %.preheader ], [ -1, %31 ], [ 1, %22 ]
  ret i32 %.025
}